ARM GAS  C:\Users\SANDEE~1\AppData\Local\Temp\ccj6vpAm.s 			page 1


   1              		.syntax unified
   2              		.cpu cortex-m3
   3              		.fpu softvfp
   4              		.eabi_attribute 20, 1
   5              		.eabi_attribute 21, 1
   6              		.eabi_attribute 23, 3
   7              		.eabi_attribute 24, 1
   8              		.eabi_attribute 25, 1
   9              		.eabi_attribute 26, 1
  10              		.eabi_attribute 30, 1
  11              		.eabi_attribute 34, 1
  12              		.eabi_attribute 18, 4
  13              		.thumb
  14              		.syntax unified
  15              		.file	"main.c"
  16              		.text
  17              	.Ltext0:
  18              		.cfi_sections	.debug_frame
  19              		.section	.text.raiseEyebrow,"ax",%progbits
  20              		.align	2
  21              		.global	raiseEyebrow
  22              		.thumb
  23              		.thumb_func
  24              		.type	raiseEyebrow, %function
  25              	raiseEyebrow:
  26              	.LFB63:
  27              		.file 1 "main.c"
   1:main.c        **** /* ========================================
   2:main.c        ****  *
   3:main.c        ****  * Copyright YOUR COMPANY, THE YEAR
   4:main.c        ****  * All Rights Reserved
   5:main.c        ****  * UNPUBLISHED, LICENSED SOFTWARE.
   6:main.c        ****  *
   7:main.c        ****  * CONFIDENTIAL AND PROPRIETARY INFORMATION
   8:main.c        ****  * WHICH IS THE PROPERTY OF your company.
   9:main.c        ****  *
  10:main.c        ****  * ========================================
  11:main.c        **** */
  12:main.c        **** #include "project.h"
  13:main.c        **** 
  14:main.c        **** 
  15:main.c        **** void raiseEyebrow() {
  28              		.loc 1 15 0
  29              		.cfi_startproc
  30              		@ args = 0, pretend = 0, frame = 0
  31              		@ frame_needed = 0, uses_anonymous_args = 0
  32 0000 08B5     		push	{r3, lr}
  33              		.cfi_def_cfa_offset 8
  34              		.cfi_offset 3, -8
  35              		.cfi_offset 14, -4
  16:main.c        ****     
  17:main.c        ****     RightEyebrow_WriteCompare1(500);
  36              		.loc 1 17 0
  37 0002 4FF4FA70 		mov	r0, #500
  38 0006 FFF7FEFF 		bl	RightEyebrow_WriteCompare1
  39              	.LVL0:
  18:main.c        ****     RightEyebrow_WriteCompare2(1600);
ARM GAS  C:\Users\SANDEE~1\AppData\Local\Temp\ccj6vpAm.s 			page 2


  40              		.loc 1 18 0
  41 000a 4FF4C860 		mov	r0, #1600
  42 000e FFF7FEFF 		bl	RightEyebrow_WriteCompare2
  43              	.LVL1:
  19:main.c        ****     CyDelay(900);
  44              		.loc 1 19 0
  45 0012 4FF46170 		mov	r0, #900
  46 0016 FFF7FEFF 		bl	CyDelay
  47              	.LVL2:
  20:main.c        ****     RightEyebrow_WriteCompare1(500);
  48              		.loc 1 20 0
  49 001a 4FF4FA70 		mov	r0, #500
  50 001e FFF7FEFF 		bl	RightEyebrow_WriteCompare1
  51              	.LVL3:
  21:main.c        ****     RightEyebrow_WriteCompare2(1600);
  52              		.loc 1 21 0
  53 0022 4FF4C860 		mov	r0, #1600
  54 0026 FFF7FEFF 		bl	RightEyebrow_WriteCompare2
  55              	.LVL4:
  22:main.c        ****     CyDelay(900);
  56              		.loc 1 22 0
  57 002a 4FF46170 		mov	r0, #900
  58 002e FFF7FEFF 		bl	CyDelay
  59              	.LVL5:
  60 0032 08BD     		pop	{r3, pc}
  61              		.cfi_endproc
  62              	.LFE63:
  63              		.size	raiseEyebrow, .-raiseEyebrow
  64              		.section	.text.main,"ax",%progbits
  65              		.align	2
  66              		.global	main
  67              		.thumb
  68              		.thumb_func
  69              		.type	main, %function
  70              	main:
  71              	.LFB64:
  23:main.c        ****     
  24:main.c        **** }
  25:main.c        **** 
  26:main.c        **** int main(void)
  27:main.c        **** {
  72              		.loc 1 27 0
  73              		.cfi_startproc
  74              		@ args = 0, pretend = 0, frame = 0
  75              		@ frame_needed = 0, uses_anonymous_args = 0
  76 0000 10B5     		push	{r4, lr}
  77              		.cfi_def_cfa_offset 8
  78              		.cfi_offset 4, -8
  79              		.cfi_offset 14, -4
  28:main.c        ****     CyGlobalIntEnable; /* Enable global interrupts. */
  80              		.loc 1 28 0
  81              		.syntax unified
  82              	@ 28 "main.c" 1
  83 0002 62B6     		CPSIE   i
  84              	@ 0 "" 2
  29:main.c        **** 
  30:main.c        ****     /* Place your initialization/startup code here (e.g. MyInst_Start()) */
ARM GAS  C:\Users\SANDEE~1\AppData\Local\Temp\ccj6vpAm.s 			page 3


  31:main.c        ****     RightEyebrow_Start();
  85              		.loc 1 31 0
  86              		.thumb
  87              		.syntax unified
  88 0004 FFF7FEFF 		bl	RightEyebrow_Start
  89              	.LVL6:
  32:main.c        ****     int c =0;
  90              		.loc 1 32 0
  91 0008 0024     		movs	r4, #0
  92              	.LVL7:
  93              	.L4:
  33:main.c        ****     for(;;)
  34:main.c        ****     {
  35:main.c        ****         raiseEyebrow();
  94              		.loc 1 35 0
  95 000a FFF7FEFF 		bl	raiseEyebrow
  96              	.LVL8:
  36:main.c        ****         c++;
  97              		.loc 1 36 0
  98 000e 0134     		adds	r4, r4, #1
  99              	.LVL9:
  37:main.c        ****         if(c==5){
 100              		.loc 1 37 0
 101 0010 052C     		cmp	r4, #5
 102 0012 FAD1     		bne	.L4
  38:main.c        ****             break;
  39:main.c        ****         }
  40:main.c        ****     }
  41:main.c        **** }
 103              		.loc 1 41 0
 104 0014 0020     		movs	r0, #0
 105 0016 10BD     		pop	{r4, pc}
 106              		.cfi_endproc
 107              	.LFE64:
 108              		.size	main, .-main
 109              		.text
 110              	.Letext0:
 111              		.file 2 "c:\\program files (x86)\\cypress\\psoc creator\\4.2\\psoc creator\\import\\gnu\\arm\\5.4.
 112              		.file 3 "c:\\program files (x86)\\cypress\\psoc creator\\4.2\\psoc creator\\import\\gnu\\arm\\5.4.
 113              		.file 4 "Generated_Source\\PSoC5/RightEyebrow.h"
 114              		.file 5 "Generated_Source\\PSoC5/CyLib.h"
 115              		.file 6 "Generated_Source\\PSoC5/core_cm3.h"