ARM GAS  C:\Users\suman\AppData\Local\Temp\ccrFBylt.s 			page 1


   1              		.syntax unified
   2              		.cpu cortex-m3
   3              		.fpu softvfp
   4              		.eabi_attribute 20, 1
   5              		.eabi_attribute 21, 1
   6              		.eabi_attribute 23, 3
   7              		.eabi_attribute 24, 1
   8              		.eabi_attribute 25, 1
   9              		.eabi_attribute 26, 1
  10              		.eabi_attribute 30, 1
  11              		.eabi_attribute 34, 1
  12              		.eabi_attribute 18, 4
  13              		.thumb
  14              		.file	"main.c"
  15              		.text
  16              	.Ltext0:
  17              		.cfi_sections	.debug_frame
  18              		.section	.text.sadRightEyebrow,"ax",%progbits
  19              		.align	2
  20              		.global	sadRightEyebrow
  21              		.thumb
  22              		.thumb_func
  23              		.type	sadRightEyebrow, %function
  24              	sadRightEyebrow:
  25              	.LFB63:
  26              		.file 1 ".\\main.c"
   1:.\main.c      **** #include <project.h>
   2:.\main.c      **** 
   3:.\main.c      **** void sadRightEyebrow(int value) {
  27              		.loc 1 3 0
  28              		.cfi_startproc
  29              		@ args = 0, pretend = 0, frame = 0
  30              		@ frame_needed = 0, uses_anonymous_args = 0
  31              	.LVL0:
  32 0000 10B5     		push	{r4, lr}
  33              		.cfi_def_cfa_offset 8
  34              		.cfi_offset 4, -8
  35              		.cfi_offset 14, -4
   4:.\main.c      ****     Right_Eyebrow_WriteCompare1(value);
  36              		.loc 1 4 0
  37 0002 84B2     		uxth	r4, r0
  38 0004 2046     		mov	r0, r4
  39              	.LVL1:
  40 0006 FFF7FEFF 		bl	Right_Eyebrow_WriteCompare1
  41              	.LVL2:
   5:.\main.c      ****     Right_Eyebrow_WriteCompare2(value);
  42              		.loc 1 5 0
  43 000a 2046     		mov	r0, r4
  44 000c FFF7FEFF 		bl	Right_Eyebrow_WriteCompare2
  45              	.LVL3:
  46 0010 10BD     		pop	{r4, pc}
  47              		.cfi_endproc
  48              	.LFE63:
  49              		.size	sadRightEyebrow, .-sadRightEyebrow
  50 0012 00BF     		.section	.text.sadLeftEyebrow,"ax",%progbits
  51              		.align	2
  52              		.global	sadLeftEyebrow
ARM GAS  C:\Users\suman\AppData\Local\Temp\ccrFBylt.s 			page 2


  53              		.thumb
  54              		.thumb_func
  55              		.type	sadLeftEyebrow, %function
  56              	sadLeftEyebrow:
  57              	.LFB64:
   6:.\main.c      **** }
   7:.\main.c      **** 
   8:.\main.c      **** void sadLeftEyebrow(int value) {
  58              		.loc 1 8 0
  59              		.cfi_startproc
  60              		@ args = 0, pretend = 0, frame = 0
  61              		@ frame_needed = 0, uses_anonymous_args = 0
  62              	.LVL4:
  63 0000 10B5     		push	{r4, lr}
  64              		.cfi_def_cfa_offset 8
  65              		.cfi_offset 4, -8
  66              		.cfi_offset 14, -4
   9:.\main.c      ****     Left_Eyebrow_WriteCompare1(value);
  67              		.loc 1 9 0
  68 0002 84B2     		uxth	r4, r0
  69 0004 2046     		mov	r0, r4
  70              	.LVL5:
  71 0006 FFF7FEFF 		bl	Left_Eyebrow_WriteCompare1
  72              	.LVL6:
  10:.\main.c      ****     Left_Eyebrow_WriteCompare2(value);
  73              		.loc 1 10 0
  74 000a 2046     		mov	r0, r4
  75 000c FFF7FEFF 		bl	Left_Eyebrow_WriteCompare2
  76              	.LVL7:
  77 0010 10BD     		pop	{r4, pc}
  78              		.cfi_endproc
  79              	.LFE64:
  80              		.size	sadLeftEyebrow, .-sadLeftEyebrow
  81 0012 00BF     		.section	.text.moveEyesLeft,"ax",%progbits
  82              		.align	2
  83              		.global	moveEyesLeft
  84              		.thumb
  85              		.thumb_func
  86              		.type	moveEyesLeft, %function
  87              	moveEyesLeft:
  88              	.LFB65:
  11:.\main.c      **** }
  12:.\main.c      **** 
  13:.\main.c      **** void moveEyesLeft(int value){
  89              		.loc 1 13 0
  90              		.cfi_startproc
  91              		@ args = 0, pretend = 0, frame = 0
  92              		@ frame_needed = 0, uses_anonymous_args = 0
  93              	.LVL8:
  94 0000 10B5     		push	{r4, lr}
  95              		.cfi_def_cfa_offset 8
  96              		.cfi_offset 4, -8
  97              		.cfi_offset 14, -4
  14:.\main.c      ****    Right_Eye_WriteCompare1(value);
  98              		.loc 1 14 0
  99 0002 84B2     		uxth	r4, r0
 100 0004 2046     		mov	r0, r4
ARM GAS  C:\Users\suman\AppData\Local\Temp\ccrFBylt.s 			page 3


 101              	.LVL9:
 102 0006 FFF7FEFF 		bl	Right_Eye_WriteCompare1
 103              	.LVL10:
  15:.\main.c      ****    Left_Eye_WriteCompare1(value);
 104              		.loc 1 15 0
 105 000a 2046     		mov	r0, r4
 106 000c FFF7FEFF 		bl	Left_Eye_WriteCompare1
 107              	.LVL11:
 108 0010 10BD     		pop	{r4, pc}
 109              		.cfi_endproc
 110              	.LFE65:
 111              		.size	moveEyesLeft, .-moveEyesLeft
 112 0012 00BF     		.section	.text.moveEyesRight,"ax",%progbits
 113              		.align	2
 114              		.global	moveEyesRight
 115              		.thumb
 116              		.thumb_func
 117              		.type	moveEyesRight, %function
 118              	moveEyesRight:
 119              	.LFB66:
  16:.\main.c      **** }
  17:.\main.c      **** 
  18:.\main.c      **** void moveEyesRight(int value){
 120              		.loc 1 18 0
 121              		.cfi_startproc
 122              		@ args = 0, pretend = 0, frame = 0
 123              		@ frame_needed = 0, uses_anonymous_args = 0
 124              	.LVL12:
 125 0000 10B5     		push	{r4, lr}
 126              		.cfi_def_cfa_offset 8
 127              		.cfi_offset 4, -8
 128              		.cfi_offset 14, -4
  19:.\main.c      ****    Right_Eye_WriteCompare2(value);
 129              		.loc 1 19 0
 130 0002 84B2     		uxth	r4, r0
 131 0004 2046     		mov	r0, r4
 132              	.LVL13:
 133 0006 FFF7FEFF 		bl	Right_Eye_WriteCompare2
 134              	.LVL14:
  20:.\main.c      ****    Left_Eye_WriteCompare2(value);
 135              		.loc 1 20 0
 136 000a 2046     		mov	r0, r4
 137 000c FFF7FEFF 		bl	Left_Eye_WriteCompare2
 138              	.LVL15:
 139 0010 10BD     		pop	{r4, pc}
 140              		.cfi_endproc
 141              	.LFE66:
 142              		.size	moveEyesRight, .-moveEyesRight
 143 0012 00BF     		.section	.text.moveEyes,"ax",%progbits
 144              		.align	2
 145              		.global	moveEyes
 146              		.thumb
 147              		.thumb_func
 148              		.type	moveEyes, %function
 149              	moveEyes:
 150              	.LFB67:
  21:.\main.c      **** }
ARM GAS  C:\Users\suman\AppData\Local\Temp\ccrFBylt.s 			page 4


  22:.\main.c      **** 
  23:.\main.c      **** void moveEyes(){
 151              		.loc 1 23 0
 152              		.cfi_startproc
 153              		@ args = 0, pretend = 0, frame = 0
 154              		@ frame_needed = 0, uses_anonymous_args = 0
 155 0000 08B5     		push	{r3, lr}
 156              		.cfi_def_cfa_offset 8
 157              		.cfi_offset 3, -8
 158              		.cfi_offset 14, -4
  24:.\main.c      ****       moveEyesLeft(1000);
 159              		.loc 1 24 0
 160 0002 4FF47A70 		mov	r0, #1000
 161 0006 FFF7FEFF 		bl	moveEyesLeft
 162              	.LVL16:
  25:.\main.c      ****       moveEyesRight(1000);
 163              		.loc 1 25 0
 164 000a 4FF47A70 		mov	r0, #1000
 165 000e FFF7FEFF 		bl	moveEyesRight
 166              	.LVL17:
 167 0012 08BD     		pop	{r3, pc}
 168              		.cfi_endproc
 169              	.LFE67:
 170              		.size	moveEyes, .-moveEyes
 171              		.section	.text.moveNeck,"ax",%progbits
 172              		.align	2
 173              		.global	moveNeck
 174              		.thumb
 175              		.thumb_func
 176              		.type	moveNeck, %function
 177              	moveNeck:
 178              	.LFB68:
  26:.\main.c      **** }
  27:.\main.c      **** 
  28:.\main.c      **** void moveNeck(){
 179              		.loc 1 28 0
 180              		.cfi_startproc
 181              		@ args = 0, pretend = 0, frame = 0
 182              		@ frame_needed = 0, uses_anonymous_args = 0
 183 0000 08B5     		push	{r3, lr}
 184              		.cfi_def_cfa_offset 8
 185              		.cfi_offset 3, -8
 186              		.cfi_offset 14, -4
  29:.\main.c      ****     //Moves neck in up direction
  30:.\main.c      ****     Neck_WriteCompare1(700);
 187              		.loc 1 30 0
 188 0002 4FF42F70 		mov	r0, #700
 189 0006 FFF7FEFF 		bl	Neck_WriteCompare1
 190              	.LVL18:
  31:.\main.c      ****     Neck_WriteCompare2(700);
 191              		.loc 1 31 0
 192 000a 4FF42F70 		mov	r0, #700
 193 000e FFF7FEFF 		bl	Neck_WriteCompare2
 194              	.LVL19:
  32:.\main.c      ****     CyDelay(2000);
 195              		.loc 1 32 0
 196 0012 4FF4FA60 		mov	r0, #2000
ARM GAS  C:\Users\suman\AppData\Local\Temp\ccrFBylt.s 			page 5


 197 0016 FFF7FEFF 		bl	CyDelay
 198              	.LVL20:
  33:.\main.c      ****     //Moves neck down
  34:.\main.c      ****     Neck_WriteCompare1(1000);
 199              		.loc 1 34 0
 200 001a 4FF47A70 		mov	r0, #1000
 201 001e FFF7FEFF 		bl	Neck_WriteCompare1
 202              	.LVL21:
  35:.\main.c      ****     Neck_WriteCompare2(1000);
 203              		.loc 1 35 0
 204 0022 4FF47A70 		mov	r0, #1000
 205 0026 FFF7FEFF 		bl	Neck_WriteCompare2
 206              	.LVL22:
 207 002a 08BD     		pop	{r3, pc}
 208              		.cfi_endproc
 209              	.LFE68:
 210              		.size	moveNeck, .-moveNeck
 211              		.section	.text.rotateHead,"ax",%progbits
 212              		.align	2
 213              		.global	rotateHead
 214              		.thumb
 215              		.thumb_func
 216              		.type	rotateHead, %function
 217              	rotateHead:
 218              	.LFB69:
  36:.\main.c      **** }
  37:.\main.c      **** 
  38:.\main.c      **** void rotateHead(){
 219              		.loc 1 38 0
 220              		.cfi_startproc
 221              		@ args = 0, pretend = 0, frame = 0
 222              		@ frame_needed = 0, uses_anonymous_args = 0
 223 0000 08B5     		push	{r3, lr}
 224              		.cfi_def_cfa_offset 8
 225              		.cfi_offset 3, -8
 226              		.cfi_offset 14, -4
  39:.\main.c      ****     Base_Jaw_WriteCompare1(700);
 227              		.loc 1 39 0
 228 0002 4FF42F70 		mov	r0, #700
 229 0006 FFF7FEFF 		bl	Base_Jaw_WriteCompare1
 230              	.LVL23:
  40:.\main.c      ****     CyDelay(3000);
 231              		.loc 1 40 0
 232 000a 40F6B830 		movw	r0, #3000
 233 000e FFF7FEFF 		bl	CyDelay
 234              	.LVL24:
  41:.\main.c      ****     Base_Jaw_WriteCompare1(1000);
 235              		.loc 1 41 0
 236 0012 4FF47A70 		mov	r0, #1000
 237 0016 FFF7FEFF 		bl	Base_Jaw_WriteCompare1
 238              	.LVL25:
 239 001a 08BD     		pop	{r3, pc}
 240              		.cfi_endproc
 241              	.LFE69:
 242              		.size	rotateHead, .-rotateHead
 243              		.section	.text.tiltNeck,"ax",%progbits
 244              		.align	2
ARM GAS  C:\Users\suman\AppData\Local\Temp\ccrFBylt.s 			page 6


 245              		.global	tiltNeck
 246              		.thumb
 247              		.thumb_func
 248              		.type	tiltNeck, %function
 249              	tiltNeck:
 250              	.LFB70:
  42:.\main.c      **** }
  43:.\main.c      **** 
  44:.\main.c      **** void tiltNeck(){
 251              		.loc 1 44 0
 252              		.cfi_startproc
 253              		@ args = 0, pretend = 0, frame = 0
 254              		@ frame_needed = 0, uses_anonymous_args = 0
 255 0000 08B5     		push	{r3, lr}
 256              		.cfi_def_cfa_offset 8
 257              		.cfi_offset 3, -8
 258              		.cfi_offset 14, -4
  45:.\main.c      ****     Neck_WriteCompare1(700);
 259              		.loc 1 45 0
 260 0002 4FF42F70 		mov	r0, #700
 261 0006 FFF7FEFF 		bl	Neck_WriteCompare1
 262              	.LVL26:
  46:.\main.c      ****     CyDelay(1000);
 263              		.loc 1 46 0
 264 000a 4FF47A70 		mov	r0, #1000
 265 000e FFF7FEFF 		bl	CyDelay
 266              	.LVL27:
  47:.\main.c      ****     Neck_WriteCompare1(1000);
 267              		.loc 1 47 0
 268 0012 4FF47A70 		mov	r0, #1000
 269 0016 FFF7FEFF 		bl	Neck_WriteCompare1
 270              	.LVL28:
  48:.\main.c      ****     CyDelay(1000);
 271              		.loc 1 48 0
 272 001a 4FF47A70 		mov	r0, #1000
 273 001e FFF7FEFF 		bl	CyDelay
 274              	.LVL29:
  49:.\main.c      ****     Neck_WriteCompare2(700);
 275              		.loc 1 49 0
 276 0022 4FF42F70 		mov	r0, #700
 277 0026 FFF7FEFF 		bl	Neck_WriteCompare2
 278              	.LVL30:
  50:.\main.c      ****     CyDelay(1000);
 279              		.loc 1 50 0
 280 002a 4FF47A70 		mov	r0, #1000
 281 002e FFF7FEFF 		bl	CyDelay
 282              	.LVL31:
  51:.\main.c      ****     Neck_WriteCompare2(1000);
 283              		.loc 1 51 0
 284 0032 4FF47A70 		mov	r0, #1000
 285 0036 FFF7FEFF 		bl	Neck_WriteCompare2
 286              	.LVL32:
 287 003a 08BD     		pop	{r3, pc}
 288              		.cfi_endproc
 289              	.LFE70:
 290              		.size	tiltNeck, .-tiltNeck
 291              		.section	.text.moveJaw,"ax",%progbits
ARM GAS  C:\Users\suman\AppData\Local\Temp\ccrFBylt.s 			page 7


 292              		.align	2
 293              		.global	moveJaw
 294              		.thumb
 295              		.thumb_func
 296              		.type	moveJaw, %function
 297              	moveJaw:
 298              	.LFB71:
  52:.\main.c      **** }
  53:.\main.c      **** 
  54:.\main.c      **** void moveJaw(){
 299              		.loc 1 54 0
 300              		.cfi_startproc
 301              		@ args = 0, pretend = 0, frame = 0
 302              		@ frame_needed = 0, uses_anonymous_args = 0
 303 0000 08B5     		push	{r3, lr}
 304              		.cfi_def_cfa_offset 8
 305              		.cfi_offset 3, -8
 306              		.cfi_offset 14, -4
  55:.\main.c      ****     Jaw_WriteCompare1(200);
 307              		.loc 1 55 0
 308 0002 C820     		movs	r0, #200
 309 0004 FFF7FEFF 		bl	Jaw_WriteCompare1
 310              	.LVL33:
  56:.\main.c      ****     CyDelay(1000);
 311              		.loc 1 56 0
 312 0008 4FF47A70 		mov	r0, #1000
 313 000c FFF7FEFF 		bl	CyDelay
 314              	.LVL34:
  57:.\main.c      ****     Jaw_WriteCompare1(1000);
 315              		.loc 1 57 0
 316 0010 4FF47A70 		mov	r0, #1000
 317 0014 FFF7FEFF 		bl	Jaw_WriteCompare1
 318              	.LVL35:
  58:.\main.c      ****     CyDelay(1000);
 319              		.loc 1 58 0
 320 0018 4FF47A70 		mov	r0, #1000
 321 001c FFF7FEFF 		bl	CyDelay
 322              	.LVL36:
 323 0020 08BD     		pop	{r3, pc}
 324              		.cfi_endproc
 325              	.LFE71:
 326              		.size	moveJaw, .-moveJaw
 327 0022 00BF     		.section	.text.moveRightLip,"ax",%progbits
 328              		.align	2
 329              		.global	moveRightLip
 330              		.thumb
 331              		.thumb_func
 332              		.type	moveRightLip, %function
 333              	moveRightLip:
 334              	.LFB72:
  59:.\main.c      **** }
  60:.\main.c      **** 
  61:.\main.c      **** void moveRightLip(int value){
 335              		.loc 1 61 0
 336              		.cfi_startproc
 337              		@ args = 0, pretend = 0, frame = 0
 338              		@ frame_needed = 0, uses_anonymous_args = 0
ARM GAS  C:\Users\suman\AppData\Local\Temp\ccrFBylt.s 			page 8


 339              	.LVL37:
 340 0000 08B5     		push	{r3, lr}
 341              		.cfi_def_cfa_offset 8
 342              		.cfi_offset 3, -8
 343              		.cfi_offset 14, -4
  62:.\main.c      ****     Lip_WriteCompare1(value);
 344              		.loc 1 62 0
 345 0002 80B2     		uxth	r0, r0
 346              	.LVL38:
 347 0004 FFF7FEFF 		bl	Lip_WriteCompare1
 348              	.LVL39:
 349 0008 08BD     		pop	{r3, pc}
 350              		.cfi_endproc
 351              	.LFE72:
 352              		.size	moveRightLip, .-moveRightLip
 353              		.section	.text.moveLeftLip,"ax",%progbits
 354              		.align	2
 355              		.global	moveLeftLip
 356              		.thumb
 357              		.thumb_func
 358              		.type	moveLeftLip, %function
 359              	moveLeftLip:
 360              	.LFB73:
  63:.\main.c      **** }
  64:.\main.c      **** 
  65:.\main.c      **** void moveLeftLip(int value){
 361              		.loc 1 65 0
 362              		.cfi_startproc
 363              		@ args = 0, pretend = 0, frame = 0
 364              		@ frame_needed = 0, uses_anonymous_args = 0
 365              	.LVL40:
 366 0000 08B5     		push	{r3, lr}
 367              		.cfi_def_cfa_offset 8
 368              		.cfi_offset 3, -8
 369              		.cfi_offset 14, -4
  66:.\main.c      ****     Lip_WriteCompare2(value);
 370              		.loc 1 66 0
 371 0002 80B2     		uxth	r0, r0
 372              	.LVL41:
 373 0004 FFF7FEFF 		bl	Lip_WriteCompare2
 374              	.LVL42:
 375 0008 08BD     		pop	{r3, pc}
 376              		.cfi_endproc
 377              	.LFE73:
 378              		.size	moveLeftLip, .-moveLeftLip
 379              		.section	.text.initializeAllComponenets,"ax",%progbits
 380              		.align	2
 381              		.global	initializeAllComponenets
 382              		.thumb
 383              		.thumb_func
 384              		.type	initializeAllComponenets, %function
 385              	initializeAllComponenets:
 386              	.LFB74:
  67:.\main.c      **** }
  68:.\main.c      **** 
  69:.\main.c      **** void initializeAllComponenets() {
 387              		.loc 1 69 0
ARM GAS  C:\Users\suman\AppData\Local\Temp\ccrFBylt.s 			page 9


 388              		.cfi_startproc
 389              		@ args = 0, pretend = 0, frame = 0
 390              		@ frame_needed = 0, uses_anonymous_args = 0
 391 0000 08B5     		push	{r3, lr}
 392              		.cfi_def_cfa_offset 8
 393              		.cfi_offset 3, -8
 394              		.cfi_offset 14, -4
  70:.\main.c      ****     Right_Eyebrow_Start();
 395              		.loc 1 70 0
 396 0002 FFF7FEFF 		bl	Right_Eyebrow_Start
 397              	.LVL43:
  71:.\main.c      ****     Left_Eyebrow_Start();
 398              		.loc 1 71 0
 399 0006 FFF7FEFF 		bl	Left_Eyebrow_Start
 400              	.LVL44:
  72:.\main.c      ****     Right_Eye_Start();
 401              		.loc 1 72 0
 402 000a FFF7FEFF 		bl	Right_Eye_Start
 403              	.LVL45:
  73:.\main.c      ****     Left_Eye_Start();
 404              		.loc 1 73 0
 405 000e FFF7FEFF 		bl	Left_Eye_Start
 406              	.LVL46:
  74:.\main.c      ****     Neck_Start();
 407              		.loc 1 74 0
 408 0012 FFF7FEFF 		bl	Neck_Start
 409              	.LVL47:
  75:.\main.c      ****     Base_Jaw_Start();
 410              		.loc 1 75 0
 411 0016 FFF7FEFF 		bl	Base_Jaw_Start
 412              	.LVL48:
  76:.\main.c      ****     Lip_Start();
 413              		.loc 1 76 0
 414 001a FFF7FEFF 		bl	Lip_Start
 415              	.LVL49:
  77:.\main.c      ****     Jaw_Start();
 416              		.loc 1 77 0
 417 001e FFF7FEFF 		bl	Jaw_Start
 418              	.LVL50:
 419 0022 08BD     		pop	{r3, pc}
 420              		.cfi_endproc
 421              	.LFE74:
 422              		.size	initializeAllComponenets, .-initializeAllComponenets
 423              		.section	.text.stopAllComponents,"ax",%progbits
 424              		.align	2
 425              		.global	stopAllComponents
 426              		.thumb
 427              		.thumb_func
 428              		.type	stopAllComponents, %function
 429              	stopAllComponents:
 430              	.LFB75:
  78:.\main.c      **** }
  79:.\main.c      **** void stopAllComponents() {
 431              		.loc 1 79 0
 432              		.cfi_startproc
 433              		@ args = 0, pretend = 0, frame = 0
 434              		@ frame_needed = 0, uses_anonymous_args = 0
ARM GAS  C:\Users\suman\AppData\Local\Temp\ccrFBylt.s 			page 10


 435 0000 08B5     		push	{r3, lr}
 436              		.cfi_def_cfa_offset 8
 437              		.cfi_offset 3, -8
 438              		.cfi_offset 14, -4
  80:.\main.c      ****     Right_Eyebrow_Stop();
 439              		.loc 1 80 0
 440 0002 FFF7FEFF 		bl	Right_Eyebrow_Stop
 441              	.LVL51:
 442 0006 08BD     		pop	{r3, pc}
 443              		.cfi_endproc
 444              	.LFE75:
 445              		.size	stopAllComponents, .-stopAllComponents
 446              		.section	.text.main,"ax",%progbits
 447              		.align	2
 448              		.global	main
 449              		.thumb
 450              		.thumb_func
 451              		.type	main, %function
 452              	main:
 453              	.LFB76:
  81:.\main.c      **** }
  82:.\main.c      **** int main(void)
  83:.\main.c      **** {
 454              		.loc 1 83 0
 455              		.cfi_startproc
 456              		@ args = 0, pretend = 0, frame = 0
 457              		@ frame_needed = 0, uses_anonymous_args = 0
 458 0000 08B5     		push	{r3, lr}
 459              		.cfi_def_cfa_offset 8
 460              		.cfi_offset 3, -8
 461              		.cfi_offset 14, -4
  84:.\main.c      ****     CyGlobalIntEnable;
 462              		.loc 1 84 0
 463              	@ 84 ".\main.c" 1
 464 0002 62B6     		CPSIE   i
 465              	@ 0 "" 2
 466              	.LVL52:
  85:.\main.c      ****     int compareVal = 1000;
  86:.\main.c      ****     initializeAllComponenets();
 467              		.loc 1 86 0
 468              		.thumb
 469 0004 FFF7FEFF 		bl	initializeAllComponenets
 470              	.LVL53:
 471              	.L28:
  87:.\main.c      ****     //int compareVal = 0;
  88:.\main.c      ****     
  89:.\main.c      ****     //Value 1000, Means reset
  90:.\main.c      ****     // Value 500 Means 90* rotate
  91:.\main.c      ****     // Value 200 Means next 90* Rotate
  92:.\main.c      ****     
  93:.\main.c      ****     // Basically : if u want 90 degree, value is 500
  94:.\main.c      ****     // If u want 180 degree value is 700
  95:.\main.c      ****     
  96:.\main.c      ****     
  97:.\main.c      ****     for(;;){
  98:.\main.c      ****         /*
  99:.\main.c      ****         sadRightEyebrow(1000);
ARM GAS  C:\Users\suman\AppData\Local\Temp\ccrFBylt.s 			page 11


 100:.\main.c      ****         sadLeftEyebrow(1000);
 101:.\main.c      ****         CyDelay(1500);
 102:.\main.c      ****         moveEyesLeft(1000);
 103:.\main.c      ****         CyDelay(1500);
 104:.\main.c      ****         moveEyesRight(1000);
 105:.\main.c      ****         moveRightLip(1000);
 106:.\main.c      ****         moveLeftLip(1000);
 107:.\main.c      ****         CyDelay(1500);    */    
 108:.\main.c      ****         
 109:.\main.c      ****         sadRightEyebrow(500);
 472              		.loc 1 109 0 discriminator 1
 473 0008 4FF4FA70 		mov	r0, #500
 474 000c FFF7FEFF 		bl	sadRightEyebrow
 475              	.LVL54:
 110:.\main.c      ****         sadLeftEyebrow(500);
 476              		.loc 1 110 0 discriminator 1
 477 0010 4FF4FA70 		mov	r0, #500
 478 0014 FFF7FEFF 		bl	sadLeftEyebrow
 479              	.LVL55:
 111:.\main.c      ****         CyDelay(1500);
 480              		.loc 1 111 0 discriminator 1
 481 0018 40F2DC50 		movw	r0, #1500
 482 001c FFF7FEFF 		bl	CyDelay
 483              	.LVL56:
 112:.\main.c      ****         moveEyesLeft(200);
 484              		.loc 1 112 0 discriminator 1
 485 0020 C820     		movs	r0, #200
 486 0022 FFF7FEFF 		bl	moveEyesLeft
 487              	.LVL57:
 113:.\main.c      ****         moveEyesRight(200);
 488              		.loc 1 113 0 discriminator 1
 489 0026 C820     		movs	r0, #200
 490 0028 FFF7FEFF 		bl	moveEyesRight
 491              	.LVL58:
 114:.\main.c      ****         CyDelay(1500);
 492              		.loc 1 114 0 discriminator 1
 493 002c 40F2DC50 		movw	r0, #1500
 494 0030 FFF7FEFF 		bl	CyDelay
 495              	.LVL59:
 115:.\main.c      ****         moveRightLip(1000);
 496              		.loc 1 115 0 discriminator 1
 497 0034 4FF47A70 		mov	r0, #1000
 498 0038 FFF7FEFF 		bl	moveRightLip
 499              	.LVL60:
 116:.\main.c      ****         moveLeftLip(1000);
 500              		.loc 1 116 0 discriminator 1
 501 003c 4FF47A70 		mov	r0, #1000
 502 0040 FFF7FEFF 		bl	moveLeftLip
 503              	.LVL61:
 117:.\main.c      ****         CyDelay(1500);
 504              		.loc 1 117 0 discriminator 1
 505 0044 40F2DC50 		movw	r0, #1500
 506 0048 FFF7FEFF 		bl	CyDelay
 507              	.LVL62:
 118:.\main.c      ****         
 119:.\main.c      ****         sadRightEyebrow(200);
 508              		.loc 1 119 0 discriminator 1
ARM GAS  C:\Users\suman\AppData\Local\Temp\ccrFBylt.s 			page 12


 509 004c C820     		movs	r0, #200
 510 004e FFF7FEFF 		bl	sadRightEyebrow
 511              	.LVL63:
 120:.\main.c      ****         sadLeftEyebrow(200);
 512              		.loc 1 120 0 discriminator 1
 513 0052 C820     		movs	r0, #200
 514 0054 FFF7FEFF 		bl	sadLeftEyebrow
 515              	.LVL64:
 121:.\main.c      ****         CyDelay(1500);
 516              		.loc 1 121 0 discriminator 1
 517 0058 40F2DC50 		movw	r0, #1500
 518 005c FFF7FEFF 		bl	CyDelay
 519              	.LVL65:
 122:.\main.c      ****         moveEyesLeft(500);
 520              		.loc 1 122 0 discriminator 1
 521 0060 4FF4FA70 		mov	r0, #500
 522 0064 FFF7FEFF 		bl	moveEyesLeft
 523              	.LVL66:
 123:.\main.c      ****         moveEyesRight(500);
 524              		.loc 1 123 0 discriminator 1
 525 0068 4FF4FA70 		mov	r0, #500
 526 006c FFF7FEFF 		bl	moveEyesRight
 527              	.LVL67:
 124:.\main.c      ****         CyDelay(1500);
 528              		.loc 1 124 0 discriminator 1
 529 0070 40F2DC50 		movw	r0, #1500
 530 0074 FFF7FEFF 		bl	CyDelay
 531              	.LVL68:
 125:.\main.c      ****         moveRightLip(200);
 532              		.loc 1 125 0 discriminator 1
 533 0078 C820     		movs	r0, #200
 534 007a FFF7FEFF 		bl	moveRightLip
 535              	.LVL69:
 126:.\main.c      ****         moveLeftLip(200);
 536              		.loc 1 126 0 discriminator 1
 537 007e C820     		movs	r0, #200
 538 0080 FFF7FEFF 		bl	moveLeftLip
 539              	.LVL70:
 127:.\main.c      ****         CyDelay(1500); 
 540              		.loc 1 127 0 discriminator 1
 541 0084 40F2DC50 		movw	r0, #1500
 542 0088 FFF7FEFF 		bl	CyDelay
 543              	.LVL71:
 128:.\main.c      ****         
 129:.\main.c      ****         moveNeck();
 544              		.loc 1 129 0 discriminator 1
 545 008c FFF7FEFF 		bl	moveNeck
 546              	.LVL72:
 130:.\main.c      ****         tiltNeck();
 547              		.loc 1 130 0 discriminator 1
 548 0090 FFF7FEFF 		bl	tiltNeck
 549              	.LVL73:
 131:.\main.c      ****         rotateHead();
 550              		.loc 1 131 0 discriminator 1
 551 0094 FFF7FEFF 		bl	rotateHead
 552              	.LVL74:
 132:.\main.c      ****         CyDelay(1500); 
ARM GAS  C:\Users\suman\AppData\Local\Temp\ccrFBylt.s 			page 13


 553              		.loc 1 132 0 discriminator 1
 554 0098 40F2DC50 		movw	r0, #1500
 555 009c FFF7FEFF 		bl	CyDelay
 556              	.LVL75:
 133:.\main.c      ****         moveJaw();
 557              		.loc 1 133 0 discriminator 1
 558 00a0 FFF7FEFF 		bl	moveJaw
 559              	.LVL76:
 134:.\main.c      ****     }
 560              		.loc 1 134 0 discriminator 1
 561 00a4 B0E7     		b	.L28
 562              		.cfi_endproc
 563              	.LFE76:
 564              		.size	main, .-main
 565 00a6 00BF     		.text
 566              	.Letext0:
 567              		.file 2 "f:\\apps\\psoc creator\\3.3\\psoc creator\\import\\gnu\\arm\\4.9.3\\arm-none-eabi\\includ
 568              		.file 3 "f:\\apps\\psoc creator\\3.3\\psoc creator\\import\\gnu\\arm\\4.9.3\\arm-none-eabi\\includ
 569              		.file 4 "Generated_Source\\PSoC5/cytypes.h"
 570              		.file 5 "Generated_Source\\PSoC5/Right_Eyebrow.h"
 571              		.file 6 "Generated_Source\\PSoC5/Left_Eyebrow.h"
 572              		.file 7 "Generated_Source\\PSoC5/Right_Eye.h"
 573              		.file 8 "Generated_Source\\PSoC5/Left_Eye.h"
 574              		.file 9 "Generated_Source\\PSoC5/Neck.h"
 575              		.file 10 "Generated_Source\\PSoC5/CyLib.h"
 576              		.file 11 "Generated_Source\\PSoC5/Base_Jaw.h"
 577              		.file 12 "Generated_Source\\PSoC5/Jaw.h"
 578              		.file 13 "Generated_Source\\PSoC5/Lip.h"
 579              		.file 14 "Generated_Source\\PSoC5/core_cm3.h"